target datalayout = "e-m:e-p270:32:32-p271:32:32-p272:64:64-i64:64-i128:128-f80:128-n8:16:32:64-S128"
target triple = "x86_64-pc-linux-gnu"

%struct.symlink_trav_t = type { i64, i64, ptr, i8 }
%struct.symlink_trav_path_t = type { i32, ptr, ptr }

@enable_error_stack = external global i32, align 4
@H5tools_ERR_STACK_g = external global i64, align 8
@H5tools_ERR_CLS_g = external global i64, align 8
@.str.2 = private unnamed_addr constant [106 x i8] c"generated/home/dtcxzyw/WorkSpace/Projects/compilers/llvm-opt-benchmark/bench/hdf5/hdf5/tools/lib/h5trav.c\00", align 1
@H5E_tools_g = external global i64, align 8
@H5E_tools_min_id_g = external global i64, align 8
@stderr = external global ptr, align 8
@.str.4 = private unnamed_addr constant [2 x i8] c"\0A\00", align 1
@__func__.symlink_visit_add = private unnamed_addr constant [18 x i8] c"symlink_visit_add\00", align 1
@.str.5 = private unnamed_addr constant [38 x i8] c"visited data structure realloc failed\00", align 1
@.str.6 = private unnamed_addr constant [46 x i8] c"visited data structure name allocation failed\00", align 1
@.str.7 = private unnamed_addr constant [46 x i8] c"visited data structure path allocation failed\00", align 1

; Function Attrs: nounwind uwtable
define i32 @symlink_visit_add(ptr noundef %0, i32 noundef %1, ptr noundef %2, ptr noundef %3) #0 {
  %5 = alloca i32, align 4
  %6 = alloca ptr, align 8
  %7 = alloca i32, align 4
  %8 = alloca ptr, align 8
  %9 = alloca ptr, align 8
  %10 = alloca i64, align 8
  %11 = alloca i32, align 4
  %12 = alloca ptr, align 8
  %13 = alloca i32, align 4
  store ptr %0, ptr %6, align 8, !tbaa !107
  store i32 %1, ptr %7, align 4, !tbaa !3
  store ptr %2, ptr %8, align 8, !tbaa !10
  store ptr %3, ptr %9, align 8, !tbaa !10
  call void @llvm.lifetime.start.p0(i64 8, ptr %10) #10
  call void @llvm.lifetime.start.p0(i64 4, ptr %11) #10
  store i32 0, ptr %11, align 4, !tbaa !3
  %14 = load ptr, ptr %6, align 8, !tbaa !107
  %15 = getelementptr inbounds nuw %struct.symlink_trav_t, ptr %14, i32 0, i32 1
  %16 = load i64, ptr %15, align 8, !tbaa !109
  %17 = load ptr, ptr %6, align 8, !tbaa !107
  %18 = getelementptr inbounds nuw %struct.symlink_trav_t, ptr %17, i32 0, i32 0
  %19 = load i64, ptr %18, align 8, !tbaa !110
  %20 = icmp eq i64 %16, %19
  br i1 %20, label %21, label %84

21:                                               ; preds = %4
  call void @llvm.lifetime.start.p0(i64 8, ptr %12) #10
  %22 = load ptr, ptr %6, align 8, !tbaa !107
  %23 = getelementptr inbounds nuw %struct.symlink_trav_t, ptr %22, i32 0, i32 0
  %24 = load i64, ptr %23, align 8, !tbaa !110
  %25 = mul i64 %24, 2
  %26 = icmp ugt i64 1, %25
  br i1 %26, label %27, label %28

27:                                               ; preds = %21
  br label %33

28:                                               ; preds = %21
  %29 = load ptr, ptr %6, align 8, !tbaa !107
  %30 = getelementptr inbounds nuw %struct.symlink_trav_t, ptr %29, i32 0, i32 0
  %31 = load i64, ptr %30, align 8, !tbaa !110
  %32 = mul i64 %31, 2
  br label %33

33:                                               ; preds = %28, %27
  %34 = phi i64 [ 1, %27 ], [ %32, %28 ]
  %35 = load ptr, ptr %6, align 8, !tbaa !107
  %36 = getelementptr inbounds nuw %struct.symlink_trav_t, ptr %35, i32 0, i32 0
  store i64 %34, ptr %36, align 8, !tbaa !110
  %37 = load ptr, ptr %6, align 8, !tbaa !107
  %38 = getelementptr inbounds nuw %struct.symlink_trav_t, ptr %37, i32 0, i32 2
  %39 = load ptr, ptr %38, align 8, !tbaa !111
  %40 = load ptr, ptr %6, align 8, !tbaa !107
  %41 = getelementptr inbounds nuw %struct.symlink_trav_t, ptr %40, i32 0, i32 0
  %42 = load i64, ptr %41, align 8, !tbaa !110
  %43 = mul i64 %42, 24
  %44 = call ptr @realloc(ptr noundef %39, i64 noundef %43) #11
  store ptr %44, ptr %12, align 8, !tbaa !36
  %45 = icmp eq ptr null, %44
  br i1 %45, label %46, label %77

46:                                               ; preds = %33
  br label %47

47:                                               ; preds = %46
  br label %48

48:                                               ; preds = %47
  %49 = load i32, ptr @enable_error_stack, align 4, !tbaa !3
  %50 = icmp sgt i32 %49, 0
  br i1 %50, label %51, label %69

51:                                               ; preds = %48
  %52 = load i64, ptr @H5tools_ERR_STACK_g, align 8, !tbaa !21
  %53 = icmp sge i64 %52, 0
  br i1 %53, label %54, label %63

54:                                               ; preds = %51
  %55 = load i64, ptr @H5tools_ERR_CLS_g, align 8, !tbaa !21
  %56 = icmp sge i64 %55, 0
  br i1 %56, label %57, label %63

57:                                               ; preds = %54
  %58 = load i64, ptr @H5tools_ERR_STACK_g, align 8, !tbaa !21
  %59 = load i64, ptr @H5tools_ERR_CLS_g, align 8, !tbaa !21
  %60 = load i64, ptr @H5E_tools_g, align 8, !tbaa !21
  %61 = load i64, ptr @H5E_tools_min_id_g, align 8, !tbaa !21
  %62 = call i32 (i64, ptr, ptr, i32, i64, i64, i64, ptr, ...) @H5Epush2(i64 noundef %58, ptr noundef @.str.2, ptr noundef @__func__.symlink_visit_add, i32 noundef 1077, i64 noundef %59, i64 noundef %60, i64 noundef %61, ptr noundef @.str.5)
  br label %68

63:                                               ; preds = %54, %51
  %64 = load ptr, ptr @stderr, align 8, !tbaa !44
  %65 = call i32 (ptr, ptr, ...) @fprintf(ptr noundef %64, ptr noundef @.str.5) #10
  %66 = load ptr, ptr @stderr, align 8, !tbaa !44
  %67 = call i32 (ptr, ptr, ...) @fprintf(ptr noundef %66, ptr noundef @.str.4) #10
  br label %68

68:                                               ; preds = %63, %57
  br label %69

69:                                               ; preds = %68, %48
  br label %70

70:                                               ; preds = %69
  br label %71

71:                                               ; preds = %70
  br label %72

72:                                               ; preds = %71
  store i32 -1, ptr %11, align 4, !tbaa !3
  store i32 8, ptr %13, align 4
  br label %81

73:                                               ; No predecessors!
  br label %74

74:                                               ; preds = %73
  br label %75

75:                                               ; preds = %74
  br label %76

76:                                               ; preds = %75
  br label %77

77:                                               ; preds = %76, %33
  %78 = load ptr, ptr %12, align 8, !tbaa !36
  %79 = load ptr, ptr %6, align 8, !tbaa !107
  %80 = getelementptr inbounds nuw %struct.symlink_trav_t, ptr %79, i32 0, i32 2
  store ptr %78, ptr %80, align 8, !tbaa !111
  store i32 0, ptr %13, align 4
  br label %81

81:                                               ; preds = %72, %77
  call void @llvm.lifetime.end.p0(i64 8, ptr %12) #10
  %82 = load i32, ptr %13, align 4
  switch i32 %82, label %221 [
    i32 0, label %83
    i32 8, label %219
  ]

83:                                               ; preds = %81
  br label %84

84:                                               ; preds = %83, %4
  %85 = load ptr, ptr %6, align 8, !tbaa !107
  %86 = getelementptr inbounds nuw %struct.symlink_trav_t, ptr %85, i32 0, i32 1
  %87 = load i64, ptr %86, align 8, !tbaa !109
  %88 = add i64 %87, 1
  store i64 %88, ptr %86, align 8, !tbaa !109
  store i64 %87, ptr %10, align 8, !tbaa !21
  %89 = load i32, ptr %7, align 4, !tbaa !3
  %90 = load ptr, ptr %6, align 8, !tbaa !107
  %91 = getelementptr inbounds nuw %struct.symlink_trav_t, ptr %90, i32 0, i32 2
  %92 = load ptr, ptr %91, align 8, !tbaa !111
  %93 = load i64, ptr %10, align 8, !tbaa !21
  %94 = getelementptr inbounds nuw %struct.symlink_trav_path_t, ptr %92, i64 %93
  %95 = getelementptr inbounds nuw %struct.symlink_trav_path_t, ptr %94, i32 0, i32 0
  store i32 %89, ptr %95, align 8, !tbaa !112
  %96 = load ptr, ptr %6, align 8, !tbaa !107
  %97 = getelementptr inbounds nuw %struct.symlink_trav_t, ptr %96, i32 0, i32 2
  %98 = load ptr, ptr %97, align 8, !tbaa !111
  %99 = load i64, ptr %10, align 8, !tbaa !21
  %100 = getelementptr inbounds nuw %struct.symlink_trav_path_t, ptr %98, i64 %99
  %101 = getelementptr inbounds nuw %struct.symlink_trav_path_t, ptr %100, i32 0, i32 1
  store ptr null, ptr %101, align 8, !tbaa !72
  %102 = load ptr, ptr %6, align 8, !tbaa !107
  %103 = getelementptr inbounds nuw %struct.symlink_trav_t, ptr %102, i32 0, i32 2
  %104 = load ptr, ptr %103, align 8, !tbaa !111
  %105 = load i64, ptr %10, align 8, !tbaa !21
  %106 = getelementptr inbounds nuw %struct.symlink_trav_path_t, ptr %104, i64 %105
  %107 = getelementptr inbounds nuw %struct.symlink_trav_path_t, ptr %106, i32 0, i32 2
  store ptr null, ptr %107, align 8, !tbaa !74
  %108 = load i32, ptr %7, align 4, !tbaa !3
  %109 = icmp eq i32 %108, 64
  br i1 %109, label %110, label %156

110:                                              ; preds = %84
  %111 = load ptr, ptr %8, align 8, !tbaa !10
  %112 = call noalias ptr @strdup(ptr noundef %111) #10
  %113 = load ptr, ptr %6, align 8, !tbaa !107
  %114 = getelementptr inbounds nuw %struct.symlink_trav_t, ptr %113, i32 0, i32 2
  %115 = load ptr, ptr %114, align 8, !tbaa !111
  %116 = load i64, ptr %10, align 8, !tbaa !21
  %117 = getelementptr inbounds nuw %struct.symlink_trav_path_t, ptr %115, i64 %116
  %118 = getelementptr inbounds nuw %struct.symlink_trav_path_t, ptr %117, i32 0, i32 1
  store ptr %112, ptr %118, align 8, !tbaa !72
  %119 = icmp eq ptr null, %112
  br i1 %119, label %120, label %155

120:                                              ; preds = %110
  %121 = load ptr, ptr %6, align 8, !tbaa !107
  %122 = getelementptr inbounds nuw %struct.symlink_trav_t, ptr %121, i32 0, i32 1
  %123 = load i64, ptr %122, align 8, !tbaa !109
  %124 = add i64 %123, -1
  store i64 %124, ptr %122, align 8, !tbaa !109
  br label %125

125:                                              ; preds = %120
  br label %126

126:                                              ; preds = %125
  %127 = load i32, ptr @enable_error_stack, align 4, !tbaa !3
  %128 = icmp sgt i32 %127, 0
  br i1 %128, label %129, label %147

129:                                              ; preds = %126
  %130 = load i64, ptr @H5tools_ERR_STACK_g, align 8, !tbaa !21
  %131 = icmp sge i64 %130, 0
  br i1 %131, label %132, label %141

132:                                              ; preds = %129
  %133 = load i64, ptr @H5tools_ERR_CLS_g, align 8, !tbaa !21
  %134 = icmp sge i64 %133, 0
  br i1 %134, label %135, label %141

135:                                              ; preds = %132
  %136 = load i64, ptr @H5tools_ERR_STACK_g, align 8, !tbaa !21
  %137 = load i64, ptr @H5tools_ERR_CLS_g, align 8, !tbaa !21
  %138 = load i64, ptr @H5E_tools_g, align 8, !tbaa !21
  %139 = load i64, ptr @H5E_tools_min_id_g, align 8, !tbaa !21
  %140 = call i32 (i64, ptr, ptr, i32, i64, i64, i64, ptr, ...) @H5Epush2(i64 noundef %136, ptr noundef @.str.2, ptr noundef @__func__.symlink_visit_add, i32 noundef 1091, i64 noundef %137, i64 noundef %138, i64 noundef %139, ptr noundef @.str.6)
  br label %146

141:                                              ; preds = %132, %129
  %142 = load ptr, ptr @stderr, align 8, !tbaa !44
  %143 = call i32 (ptr, ptr, ...) @fprintf(ptr noundef %142, ptr noundef @.str.6) #10
  %144 = load ptr, ptr @stderr, align 8, !tbaa !44
  %145 = call i32 (ptr, ptr, ...) @fprintf(ptr noundef %144, ptr noundef @.str.4) #10
  br label %146

146:                                              ; preds = %141, %135
  br label %147

147:                                              ; preds = %146, %126
  br label %148

148:                                              ; preds = %147
  br label %149

149:                                              ; preds = %148
  br label %150

150:                                              ; preds = %149
  store i32 -1, ptr %11, align 4, !tbaa !3
  br label %219

151:                                              ; No predecessors!
  br label %152

152:                                              ; preds = %151
  br label %153

153:                                              ; preds = %152
  br label %154

154:                                              ; preds = %153
  br label %155

155:                                              ; preds = %154, %110
  br label %156

156:                                              ; preds = %155, %84
  %157 = load ptr, ptr %9, align 8, !tbaa !10
  %158 = call noalias ptr @strdup(ptr noundef %157) #10
  %159 = load ptr, ptr %6, align 8, !tbaa !107
  %160 = getelementptr inbounds nuw %struct.symlink_trav_t, ptr %159, i32 0, i32 2
  %161 = load ptr, ptr %160, align 8, !tbaa !111
  %162 = load i64, ptr %10, align 8, !tbaa !21
  %163 = getelementptr inbounds nuw %struct.symlink_trav_path_t, ptr %161, i64 %162
  %164 = getelementptr inbounds nuw %struct.symlink_trav_path_t, ptr %163, i32 0, i32 2
  store ptr %158, ptr %164, align 8, !tbaa !74
  %165 = icmp eq ptr null, %158
  br i1 %165, label %166, label %218

166:                                              ; preds = %156
  %167 = load ptr, ptr %6, align 8, !tbaa !107
  %168 = getelementptr inbounds nuw %struct.symlink_trav_t, ptr %167, i32 0, i32 1
  %169 = load i64, ptr %168, align 8, !tbaa !109
  %170 = add i64 %169, -1
  store i64 %170, ptr %168, align 8, !tbaa !109
  %171 = load ptr, ptr %6, align 8, !tbaa !107
  %172 = getelementptr inbounds nuw %struct.symlink_trav_t, ptr %171, i32 0, i32 2
  %173 = load ptr, ptr %172, align 8, !tbaa !111
  %174 = load i64, ptr %10, align 8, !tbaa !21
  %175 = getelementptr inbounds nuw %struct.symlink_trav_path_t, ptr %173, i64 %174
  %176 = getelementptr inbounds nuw %struct.symlink_trav_path_t, ptr %175, i32 0, i32 1
  %177 = load ptr, ptr %176, align 8, !tbaa !72
  %178 = icmp ne ptr %177, null
  br i1 %178, label %179, label %187

179:                                              ; preds = %166
  %180 = load ptr, ptr %6, align 8, !tbaa !107
  %181 = getelementptr inbounds nuw %struct.symlink_trav_t, ptr %180, i32 0, i32 2
  %182 = load ptr, ptr %181, align 8, !tbaa !111
  %183 = load i64, ptr %10, align 8, !tbaa !21
  %184 = getelementptr inbounds nuw %struct.symlink_trav_path_t, ptr %182, i64 %183
  %185 = getelementptr inbounds nuw %struct.symlink_trav_path_t, ptr %184, i32 0, i32 1
  %186 = load ptr, ptr %185, align 8, !tbaa !72
  call void @free(ptr noundef %186) #10
  br label %187

187:                                              ; preds = %179, %166
  br label %188

188:                                              ; preds = %187
  br label %189

189:                                              ; preds = %188
  %190 = load i32, ptr @enable_error_stack, align 4, !tbaa !3
  %191 = icmp sgt i32 %190, 0
  br i1 %191, label %192, label %210

192:                                              ; preds = %189
  %193 = load i64, ptr @H5tools_ERR_STACK_g, align 8, !tbaa !21
  %194 = icmp sge i64 %193, 0
  br i1 %194, label %195, label %204

195:                                              ; preds = %192
  %196 = load i64, ptr @H5tools_ERR_CLS_g, align 8, !tbaa !21
  %197 = icmp sge i64 %196, 0
  br i1 %197, label %198, label %204

198:                                              ; preds = %195
  %199 = load i64, ptr @H5tools_ERR_STACK_g, align 8, !tbaa !21
  %200 = load i64, ptr @H5tools_ERR_CLS_g, align 8, !tbaa !21
  %201 = load i64, ptr @H5E_tools_g, align 8, !tbaa !21
  %202 = load i64, ptr @H5E_tools_min_id_g, align 8, !tbaa !21
  %203 = call i32 (i64, ptr, ptr, i32, i64, i64, i64, ptr, ...) @H5Epush2(i64 noundef %199, ptr noundef @.str.2, ptr noundef @__func__.symlink_visit_add, i32 noundef 1099, i64 noundef %200, i64 noundef %201, i64 noundef %202, ptr noundef @.str.7)
  br label %209

204:                                              ; preds = %195, %192
  %205 = load ptr, ptr @stderr, align 8, !tbaa !44
  %206 = call i32 (ptr, ptr, ...) @fprintf(ptr noundef %205, ptr noundef @.str.7) #10
  %207 = load ptr, ptr @stderr, align 8, !tbaa !44
  %208 = call i32 (ptr, ptr, ...) @fprintf(ptr noundef %207, ptr noundef @.str.4) #10
  br label %209

209:                                              ; preds = %204, %198
  br label %210

210:                                              ; preds = %209, %189
  br label %211

211:                                              ; preds = %210
  br label %212

212:                                              ; preds = %211
  br label %213

213:                                              ; preds = %212
  store i32 -1, ptr %11, align 4, !tbaa !3
  br label %219

214:                                              ; No predecessors!
  br label %215

215:                                              ; preds = %214
  br label %216

216:                                              ; preds = %215
  br label %217

217:                                              ; preds = %216
  br label %218

218:                                              ; preds = %217, %156
  br label %219

219:                                              ; preds = %218, %81, %213, %150
  %220 = load i32, ptr %11, align 4, !tbaa !3
  store i32 %220, ptr %5, align 4
  store i32 1, ptr %13, align 4
  br label %221

221:                                              ; preds = %219, %81
  call void @llvm.lifetime.end.p0(i64 4, ptr %11) #10
  call void @llvm.lifetime.end.p0(i64 8, ptr %10) #10
  %222 = load i32, ptr %5, align 4
  ret i32 %222
}