; Function Attrs: nounwind uwtable
define range(i32 -1, 1) i32 @symlink_visit_add(ptr noundef captures(none) %0, i32 noundef %1, ptr noundef readonly captures(none) %2, ptr noundef readonly captures(none) %3) local_unnamed_addr #1 {
  %5 = getelementptr inbounds nuw i8, ptr %0, i64 8
  %6 = load i64, ptr %5, align 8, !tbaa !98
  %7 = load i64, ptr %0, align 8, !tbaa !99
  %8 = icmp eq i64 %6, %7
  br i1 %8, label %9, label %._crit_edge

._crit_edge:                                      ; preds = %4
  %.phi.trans.insert = getelementptr inbounds nuw i8, ptr %0, i64 16
  %.pre55 = load ptr, ptr %.phi.trans.insert, align 8, !tbaa !100
  br label %33

9:                                                ; preds = %4
  %10 = shl i64 %6, 1
  %spec.select = tail call i64 @llvm.umax.i64(i64 %10, i64 1)
  store i64 %spec.select, ptr %0, align 8, !tbaa !99
  %11 = getelementptr inbounds nuw i8, ptr %0, i64 16
  %12 = load ptr, ptr %11, align 8, !tbaa !100
  %13 = mul i64 %spec.select, 24
  %14 = tail call ptr @realloc(ptr noundef %12, i64 noundef %13) #17
  %15 = icmp eq ptr %14, null
  br i1 %15, label %16, label %32

16:                                               ; preds = %9
  %17 = load i32, ptr @enable_error_stack, align 4, !tbaa !3
  %18 = icmp sgt i32 %17, 0
  br i1 %18, label %19, label %.thread

19:                                               ; preds = %16
  %20 = load i64, ptr @H5tools_ERR_STACK_g, align 8, !tbaa !38
  %21 = icmp sgt i64 %20, -1
  %22 = load i64, ptr @H5tools_ERR_CLS_g, align 8
  %23 = icmp sgt i64 %22, -1
  %or.cond = select i1 %21, i1 %23, i1 false
  br i1 %or.cond, label %24, label %28

24:                                               ; preds = %19
  %25 = load i64, ptr @H5E_tools_g, align 8, !tbaa !38
  %26 = load i64, ptr @H5E_tools_min_id_g, align 8, !tbaa !38
  %27 = tail call i32 (i64, ptr, ptr, i32, i64, i64, i64, ptr, ...) @H5Epush2(i64 noundef %20, ptr noundef nonnull @.str.2, ptr noundef nonnull @__func__.symlink_visit_add, i32 noundef 1077, i64 noundef %22, i64 noundef %25, i64 noundef %26, ptr noundef nonnull @.str.5) #18
  br label %.thread

28:                                               ; preds = %19
  %29 = load ptr, ptr @stderr, align 8, !tbaa !39
  %30 = tail call i64 @fwrite(ptr nonnull @.str.5, i64 37, i64 1, ptr %29) #19
  %31 = load ptr, ptr @stderr, align 8, !tbaa !39
  %fputc = tail call i32 @fputc(i32 10, ptr %31)
  br label %.thread

32:                                               ; preds = %9
  store ptr %14, ptr %11, align 8, !tbaa !100
  %.pre = load i64, ptr %5, align 8, !tbaa !98
  br label %33

33:                                               ; preds = %._crit_edge, %32
  %34 = phi ptr [ %14, %32 ], [ %.pre55, %._crit_edge ]
  %35 = phi i64 [ %.pre, %32 ], [ %6, %._crit_edge ]
  %36 = add i64 %35, 1
  store i64 %36, ptr %5, align 8, !tbaa !98
  %37 = getelementptr inbounds nuw %struct.symlink_trav_path_t, ptr %34, i64 %35
  store i32 %1, ptr %37, align 8, !tbaa !101
  %38 = getelementptr inbounds nuw %struct.symlink_trav_path_t, ptr %34, i64 %35, i32 1
  %39 = getelementptr inbounds nuw %struct.symlink_trav_path_t, ptr %34, i64 %35, i32 2
  %40 = icmp eq i32 %1, 64
  tail call void @llvm.memset.p0.i64(ptr noundef nonnull align 8 dereferenceable(16) %38, i8 0, i64 16, i1 false)
  br i1 %40, label %41, label %60

41:                                               ; preds = %33
  %42 = tail call noalias ptr @strdup(ptr noundef %2) #18
  store ptr %42, ptr %38, align 8, !tbaa !65
  %43 = icmp eq ptr %42, null
  br i1 %43, label %44, label %60

44:                                               ; preds = %41
  store i64 %35, ptr %5, align 8, !tbaa !98
  %45 = load i32, ptr @enable_error_stack, align 4, !tbaa !3
  %46 = icmp sgt i32 %45, 0
  br i1 %46, label %47, label %.thread

47:                                               ; preds = %44
  %48 = load i64, ptr @H5tools_ERR_STACK_g, align 8, !tbaa !38
  %49 = icmp sgt i64 %48, -1
  %50 = load i64, ptr @H5tools_ERR_CLS_g, align 8
  %51 = icmp sgt i64 %50, -1
  %or.cond3 = select i1 %49, i1 %51, i1 false
  br i1 %or.cond3, label %52, label %56

52:                                               ; preds = %47
  %53 = load i64, ptr @H5E_tools_g, align 8, !tbaa !38
  %54 = load i64, ptr @H5E_tools_min_id_g, align 8, !tbaa !38
  %55 = tail call i32 (i64, ptr, ptr, i32, i64, i64, i64, ptr, ...) @H5Epush2(i64 noundef %48, ptr noundef nonnull @.str.2, ptr noundef nonnull @__func__.symlink_visit_add, i32 noundef 1091, i64 noundef %50, i64 noundef %53, i64 noundef %54, ptr noundef nonnull @.str.6) #18
  br label %.thread

56:                                               ; preds = %47
  %57 = load ptr, ptr @stderr, align 8, !tbaa !39
  %58 = tail call i64 @fwrite(ptr nonnull @.str.6, i64 45, i64 1, ptr %57) #19
  %59 = load ptr, ptr @stderr, align 8, !tbaa !39
  %fputc50 = tail call i32 @fputc(i32 10, ptr %59)
  br label %.thread

60:                                               ; preds = %41, %33
  %61 = phi ptr [ %42, %41 ], [ null, %33 ]
  %62 = tail call noalias ptr @strdup(ptr noundef %3) #18
  store ptr %62, ptr %39, align 8, !tbaa !67
  %63 = icmp eq ptr %62, null
  br i1 %63, label %64, label %.thread

64:                                               ; preds = %60
  store i64 %35, ptr %5, align 8, !tbaa !98
  %.not = icmp eq ptr %61, null
  br i1 %.not, label %66, label %65

65:                                               ; preds = %64
  tail call void @free(ptr noundef nonnull %61) #18
  br label %66

66:                                               ; preds = %65, %64
  %67 = load i32, ptr @enable_error_stack, align 4, !tbaa !3
  %68 = icmp sgt i32 %67, 0
  br i1 %68, label %69, label %.thread

69:                                               ; preds = %66
  %70 = load i64, ptr @H5tools_ERR_STACK_g, align 8, !tbaa !38
  %71 = icmp sgt i64 %70, -1
  %72 = load i64, ptr @H5tools_ERR_CLS_g, align 8
  %73 = icmp sgt i64 %72, -1
  %or.cond5 = select i1 %71, i1 %73, i1 false
  br i1 %or.cond5, label %74, label %78

74:                                               ; preds = %69
  %75 = load i64, ptr @H5E_tools_g, align 8, !tbaa !38
  %76 = load i64, ptr @H5E_tools_min_id_g, align 8, !tbaa !38
  %77 = tail call i32 (i64, ptr, ptr, i32, i64, i64, i64, ptr, ...) @H5Epush2(i64 noundef %70, ptr noundef nonnull @.str.2, ptr noundef nonnull @__func__.symlink_visit_add, i32 noundef 1099, i64 noundef %72, i64 noundef %75, i64 noundef %76, ptr noundef nonnull @.str.7) #18
  br label %.thread

78:                                               ; preds = %69
  %79 = load ptr, ptr @stderr, align 8, !tbaa !39
  %80 = tail call i64 @fwrite(ptr nonnull @.str.7, i64 45, i64 1, ptr %79) #19
  %81 = load ptr, ptr @stderr, align 8, !tbaa !39
  %fputc49 = tail call i32 @fputc(i32 10, ptr %81)
  br label %.thread

.thread:                                          ; preds = %24, %28, %16, %60, %44, %56, %52, %66, %78, %74
  %.2 = phi i32 [ 0, %60 ], [ -1, %44 ], [ -1, %56 ], [ -1, %52 ], [ -1, %66 ], [ -1, %78 ], [ -1, %74 ], [ -1, %16 ], [ -1, %28 ], [ -1, %24 ]
  ret i32 %.2
}